target datalayout = "e-m:e-p270:32:32-p271:32:32-p272:64:64-i64:64-i128:128-f80:128-n8:16:32:64-S128"
target triple = "x86_64-pc-linux-gnu"

@.str.24 = private unnamed_addr constant [28 x i8] c"../openssl/test/test_test.c\00", align 1
@bn_output_tests = internal global [4 x ptr] [ptr null, ptr @.str.224, ptr @.str.410, ptr @.str.411], align 16
@.str.409 = private unnamed_addr constant [34 x i8] c"BN_hex2bn(&b, bn_output_tests[n])\00", align 1

; Function Attrs: nounwind uwtable
define internal i32 @test_bn_output(i32 noundef %0) #0 {
  %2 = alloca i32, align 4
  %3 = alloca i32, align 4
  %4 = alloca ptr, align 8
  %5 = alloca i32, align 4
  store i32 %0, ptr %3, align 4, !tbaa !4
  call void @llvm.lifetime.start.p0(i64 8, ptr %4) #7
  store ptr null, ptr %4, align 8, !tbaa !12
  %6 = load i32, ptr %3, align 4, !tbaa !4
  %7 = sext i32 %6 to i64
  %8 = getelementptr inbounds [4 x ptr], ptr @bn_output_tests, i64 0, i64 %7
  %9 = load ptr, ptr %8, align 8, !tbaa !9
  %10 = icmp ne ptr %9, null
  br i1 %10, label %11, label %22

11:                                               ; preds = %1
  %12 = load i32, ptr %3, align 4, !tbaa !4
  %13 = sext i32 %12 to i64
  %14 = getelementptr inbounds [4 x ptr], ptr @bn_output_tests, i64 0, i64 %13
  %15 = load ptr, ptr %14, align 8, !tbaa !9
  %16 = call i32 @BN_hex2bn(ptr noundef %4, ptr noundef %15)
  %17 = icmp ne i32 %16, 0
  %18 = zext i1 %17 to i32
  %19 = call i32 @test_true(ptr noundef @.str.24, i32 noundef 527, ptr noundef @.str.409, i32 noundef %18)
  %20 = icmp ne i32 %19, 0
  br i1 %20, label %22, label %21

21:                                               ; preds = %11
  store i32 0, ptr %2, align 4
  store i32 1, ptr %5, align 4
  br label %29

22:                                               ; preds = %11, %1
  %23 = load i32, ptr %3, align 4, !tbaa !4
  %24 = sext i32 %23 to i64
  %25 = getelementptr inbounds [4 x ptr], ptr @bn_output_tests, i64 0, i64 %24
  %26 = load ptr, ptr %25, align 8, !tbaa !9
  %27 = load ptr, ptr %4, align 8, !tbaa !12
  call void @test_output_bignum(ptr noundef %26, ptr noundef %27)
  %28 = load ptr, ptr %4, align 8, !tbaa !12
  call void @BN_free(ptr noundef %28)
  store i32 1, ptr %2, align 4
  store i32 1, ptr %5, align 4
  br label %29

29:                                               ; preds = %22, %21
  call void @llvm.lifetime.end.p0(i64 8, ptr %4) #7
  %30 = load i32, ptr %2, align 4
  ret i32 %30
}