; Function Attrs: nounwind uwtable
define internal range(i32 0, 2) i32 @test_bn_output(i32 noundef %0) #0 {
  %2 = alloca ptr, align 8
  call void @llvm.lifetime.start.p0(i64 8, ptr nonnull %2) #5
  store ptr null, ptr %2, align 8, !tbaa !12
  %3 = sext i32 %0 to i64
  %4 = getelementptr inbounds [4 x ptr], ptr @bn_output_tests, i64 0, i64 %3
  %.not = icmp eq i32 %0, 0
  %.pre = load ptr, ptr %4, align 8, !tbaa !14
  br i1 %.not, label %10, label %5

5:                                                ; preds = %1
  %6 = call i32 @BN_hex2bn(ptr noundef nonnull %2, ptr noundef %.pre) #5
  %7 = icmp ne i32 %6, 0
  %8 = zext i1 %7 to i32
  %9 = call i32 @test_true(ptr noundef nonnull @.str.24, i32 noundef 527, ptr noundef nonnull @.str.409, i32 noundef %8) #5
  %.not5 = icmp eq i32 %9, 0
  br i1 %.not5, label %13, label %._crit_edge

._crit_edge:                                      ; preds = %5
  %.pre6 = load ptr, ptr %2, align 8, !tbaa !12
  br label %10

10:                                               ; preds = %._crit_edge, %1
  %11 = phi ptr [ %.pre6, %._crit_edge ], [ null, %1 ]
  call void @test_output_bignum(ptr noundef %.pre, ptr noundef %11) #5
  %12 = load ptr, ptr %2, align 8, !tbaa !12
  call void @BN_free(ptr noundef %12) #5
  br label %13

13:                                               ; preds = %5, %10
  %.0 = phi i32 [ 1, %10 ], [ 0, %5 ]
  call void @llvm.lifetime.end.p0(i64 8, ptr nonnull %2) #5
  ret i32 %.0
}